target datalayout = "e-m:e-p270:32:32-p271:32:32-p272:64:64-i64:64-i128:128-f80:128-n8:16:32:64-S128"
target triple = "x86_64-pc-linux-gnu"

@_ZL24gAvailableConverterCount = internal global i16 0, align 2
@_ZL20gAvailableConverters = internal global ptr null, align 8

; Function Attrs: mustprogress uwtable
define ptr @ucnv_bld_getAvailableConverter_77(i16 noundef zeroext %0, ptr noundef %1) #0 {
  %3 = alloca ptr, align 8
  %4 = alloca i16, align 2
  %5 = alloca ptr, align 8
  store i16 %0, ptr %4, align 2, !tbaa !83
  store ptr %1, ptr %5, align 8, !tbaa !8
  %6 = load ptr, ptr %5, align 8, !tbaa !8
  %7 = call noundef signext i8 @_ZL26haveAvailableConverterListP10UErrorCode(ptr noundef %6)
  %8 = icmp ne i8 %7, 0
  br i1 %8, label %9, label %23

9:                                                ; preds = %2
  %10 = load i16, ptr %4, align 2, !tbaa !83
  %11 = zext i16 %10 to i32
  %12 = load i16, ptr @_ZL24gAvailableConverterCount, align 2, !tbaa !83
  %13 = zext i16 %12 to i32
  %14 = icmp slt i32 %11, %13
  br i1 %14, label %15, label %21

15:                                               ; preds = %9
  %16 = load ptr, ptr @_ZL20gAvailableConverters, align 8, !tbaa !84
  %17 = load i16, ptr %4, align 2, !tbaa !83
  %18 = zext i16 %17 to i64
  %19 = getelementptr inbounds nuw ptr, ptr %16, i64 %18
  %20 = load ptr, ptr %19, align 8, !tbaa !31
  store ptr %20, ptr %3, align 8
  br label %24

21:                                               ; preds = %9
  %22 = load ptr, ptr %5, align 8, !tbaa !8
  store i32 8, ptr %22, align 4, !tbaa !9
  br label %23

23:                                               ; preds = %21, %2
  store ptr null, ptr %3, align 8
  br label %24

24:                                               ; preds = %23, %15
  %25 = load ptr, ptr %3, align 8
  ret ptr %25
}