; Function Attrs: mustprogress uwtable
define ptr @ucnv_bld_getAvailableConverter_77(i16 noundef zeroext %0, ptr noundef %1) local_unnamed_addr #0 {
  %3 = tail call fastcc noundef signext i8 @_ZL26haveAvailableConverterListP10UErrorCode(ptr noundef %1)
  %.not = icmp eq i8 %3, 0
  br i1 %.not, label %13, label %4

4:                                                ; preds = %2
  %5 = load i16, ptr @_ZL24gAvailableConverterCount, align 2, !tbaa !8
  %6 = icmp ult i16 %0, %5
  br i1 %6, label %7, label %12

7:                                                ; preds = %4
  %8 = load ptr, ptr @_ZL20gAvailableConverters, align 8, !tbaa !10
  %9 = zext i16 %0 to i64
  %10 = getelementptr inbounds nuw ptr, ptr %8, i64 %9
  %11 = load ptr, ptr %10, align 8, !tbaa !80
  br label %13

12:                                               ; preds = %4
  store i32 8, ptr %1, align 4, !tbaa !13
  br label %13

13:                                               ; preds = %2, %12, %7
  %.0 = phi ptr [ %11, %7 ], [ null, %12 ], [ null, %2 ]
  ret ptr %.0
}